; Function Attrs: mustprogress uwtable
define void @udtitvfmt_closeResult_77(ptr noundef %0) local_unnamed_addr #1 {
  %2 = icmp eq ptr %0, null
  br i1 %2, label %_ZN6icu_7713IcuCApiHelperI22UFormattedDateIntervalNS_26UFormattedDateIntervalImplELi1178880342EE8validateEPS1_R10UErrorCode.exit.thread, label %3

3:                                                ; preds = %1
  %4 = getelementptr inbounds nuw i8, ptr %0, i64 16
  %5 = load i32, ptr %4, align 4, !tbaa !17
  %.not9.i.i = icmp eq i32 %5, 1178880342
  br i1 %.not9.i.i, label %_ZN6icu_7713IcuCApiHelperI22UFormattedDateIntervalNS_26UFormattedDateIntervalImplELi1178880342EE8validateEPS1_R10UErrorCode.exit, label %_ZN6icu_7713IcuCApiHelperI22UFormattedDateIntervalNS_26UFormattedDateIntervalImplELi1178880342EE8validateEPS1_R10UErrorCode.exit.thread

_ZN6icu_7713IcuCApiHelperI22UFormattedDateIntervalNS_26UFormattedDateIntervalImplELi1178880342EE8validateEPS1_R10UErrorCode.exit: ; preds = %3
  tail call void @_ZN6icu_7726UFormattedDateIntervalImplD1Ev(ptr noundef nonnull align 8 dereferenceable(48) %0) #14
  tail call void @_ZN6icu_777UMemorydlEPv(ptr noundef nonnull %0) #14
  br label %_ZN6icu_7713IcuCApiHelperI22UFormattedDateIntervalNS_26UFormattedDateIntervalImplELi1178880342EE8validateEPS1_R10UErrorCode.exit.thread

_ZN6icu_7713IcuCApiHelperI22UFormattedDateIntervalNS_26UFormattedDateIntervalImplELi1178880342EE8validateEPS1_R10UErrorCode.exit.thread: ; preds = %3, %1, %_ZN6icu_7713IcuCApiHelperI22UFormattedDateIntervalNS_26UFormattedDateIntervalImplELi1178880342EE8validateEPS1_R10UErrorCode.exit
  ret void
}